target datalayout = "e-m:e-p270:32:32-p271:32:32-p272:64:64-i64:64-i128:128-f80:128-n8:16:32:64-S128"
target triple = "x86_64-pc-linux-gnu"

%struct._object = type { i64, ptr }
%"class.nanobind::handle" = type { ptr }
%struct.ClassWithProperty = type { i32 }
%class.ClassWithClassProperty = type { %struct.ClassWithProperty }
%"struct.nanobind::detail::type_caster.73" = type { %"struct.nanobind::detail::type_caster_base.74" }
%"struct.nanobind::detail::type_caster_base.74" = type { ptr }
%"struct.nanobind::detail::tuple.80" = type { %"struct.nanobind::detail::type_caster.73" }
%class.anon.83 = type { i8 }
%"struct.nanobind::detail::tuple.85" = type { %"struct.nanobind::detail::tuple.80", %"struct.nanobind::detail::type_caster.86" }
%"struct.nanobind::detail::type_caster.86" = type { %"struct.nanobind::detail::type_caster_base.87" }
%"struct.nanobind::detail::type_caster_base.87" = type { ptr }

@_Py_NoneStruct = external global %struct._object, align 8
@_ZTI17ClassWithProperty = linkonce_odr hidden constant { ptr, ptr } { ptr getelementptr inbounds (ptr, ptr @_ZTVN10__cxxabiv117__class_type_infoE, i64 2), ptr @_ZTS17ClassWithProperty }, comdat, align 8
@_ZTI22ClassWithClassProperty = linkonce_odr hidden constant { ptr, ptr } { ptr getelementptr inbounds (ptr, ptr @_ZTVN10__cxxabiv117__class_type_infoE, i64 2), ptr @_ZTS22ClassWithClassProperty }, comdat, align 8

; Function Attrs: mustprogress nounwind optsize uwtable
define linkonce_odr hidden void @_ZN22ClassWithClassPropertyC2E17ClassWithProperty(ptr noundef nonnull align 4 dereferenceable(4) %0, i32 %1) unnamed_addr #8 comdat align 2 {
  %3 = alloca %struct.ClassWithProperty, align 4
  %4 = alloca ptr, align 8
  %5 = getelementptr inbounds nuw %struct.ClassWithProperty, ptr %3, i32 0, i32 0
  store i32 %1, ptr %5, align 4
  store ptr %0, ptr %4, align 8, !tbaa !80
  %6 = load ptr, ptr %4, align 8
  %7 = getelementptr inbounds nuw %class.ClassWithClassProperty, ptr %6, i32 0, i32 0
  call void @llvm.memcpy.p0.p0.i64(ptr align 4 %7, ptr align 4 %3, i64 4, i1 false), !tbaa.struct !246
  ret void
}

; Function Attrs: alwaysinline mustprogress nounwind optsize uwtable
define linkonce_odr hidden noundef nonnull align 8 dereferenceable(8) ptr @_ZN8nanobind6detail5tupleIJNS0_11type_casterI17ClassWithPropertyiEEEE3getILm0EEERDav(ptr noundef nonnull align 8 dereferenceable(8) %0) #5 comdat align 2 {
  %2 = alloca ptr, align 8
  store ptr %0, ptr %2, align 8, !tbaa !240
  %3 = load ptr, ptr %2, align 8
  %4 = getelementptr inbounds nuw %"struct.nanobind::detail::tuple.80", ptr %3, i32 0, i32 0
  ret ptr %4
}

; Function Attrs: alwaysinline mustprogress nounwind optsize uwtable
define linkonce_odr hidden noundef ptr @_ZNK8nanobind6handle3ptrEv(ptr noundef nonnull align 8 dereferenceable(8) %0) #5 comdat align 2 {
  %2 = alloca ptr, align 8
  store ptr %0, ptr %2, align 8, !tbaa !12
  %3 = load ptr, ptr %2, align 8
  %4 = getelementptr inbounds nuw %"class.nanobind::handle", ptr %3, i32 0, i32 0
  %5 = load ptr, ptr %4, align 8, !tbaa !14
  ret ptr %5
}

; Function Attrs: inlinehint mustprogress nounwind optsize uwtable
define internal void @_ZL10_Py_INCREFP7_object(ptr noundef %0) #11 {
  %2 = alloca ptr, align 8
  store ptr %0, ptr %2, align 8, !tbaa !3
  %3 = load ptr, ptr %2, align 8, !tbaa !3
  %4 = getelementptr inbounds nuw %struct._object, ptr %3, i32 0, i32 0
  %5 = load i64, ptr %4, align 8, !tbaa !23
  %6 = add nsw i64 %5, 1
  store i64 %6, ptr %4, align 8, !tbaa !23
  ret void
}

; Function Attrs: inlinehint mustprogress optsize uwtable
define internal void @"_ZZL29nanobind_init_test_thread_extRN8nanobind7module_EENK3$_4clEP22ClassWithClassProperty17ClassWithProperty"(ptr noundef nonnull align 1 dereferenceable(1) %0, ptr noundef %1, i32 %2) #9 align 2 {
  %4 = alloca %struct.ClassWithProperty, align 4
  %5 = alloca ptr, align 8
  %6 = alloca ptr, align 8
  %7 = alloca %struct.ClassWithProperty, align 4
  %8 = getelementptr inbounds nuw %struct.ClassWithProperty, ptr %4, i32 0, i32 0
  store i32 %2, ptr %8, align 4
  store ptr %0, ptr %5, align 8, !tbaa !46
  store ptr %1, ptr %6, align 8, !tbaa !80
  %9 = load ptr, ptr %6, align 8, !tbaa !80
  call void @llvm.memcpy.p0.p0.i64(ptr align 4 %7, ptr align 4 %4, i64 4, i1 false), !tbaa.struct !246
  %10 = getelementptr inbounds nuw %struct.ClassWithProperty, ptr %7, i32 0, i32 0
  %11 = load i32, ptr %10, align 4
  call void @_ZN22ClassWithClassPropertyC2E17ClassWithProperty(ptr noundef nonnull align 4 dereferenceable(4) %9, i32 %11) #12
  ret void
}

; Function Attrs: mustprogress optsize uwtable
define linkonce_odr hidden noundef nonnull align 4 dereferenceable(4) ptr @_ZN8nanobind6detail16type_caster_baseI17ClassWithPropertyEcvRS2_Ev(ptr noundef nonnull align 8 dereferenceable(8) %0) #0 comdat align 2 {
  %2 = alloca ptr, align 8
  store ptr %0, ptr %2, align 8, !tbaa !228
  %3 = load ptr, ptr %2, align 8
  %4 = getelementptr inbounds nuw %"struct.nanobind::detail::type_caster_base.74", ptr %3, i32 0, i32 0
  %5 = load ptr, ptr %4, align 8, !tbaa !230
  call void @_ZN8nanobind6detail27raise_next_overload_if_nullEPv(ptr noundef %5) #12
  %6 = getelementptr inbounds nuw %"struct.nanobind::detail::type_caster_base.74", ptr %3, i32 0, i32 0
  %7 = load ptr, ptr %6, align 8, !tbaa !230
  ret ptr %7
}

; Function Attrs: mustprogress nounwind optsize uwtable
define linkonce_odr hidden noundef ptr @_ZN8nanobind6detail16type_caster_baseI22ClassWithClassPropertyEcvPS2_Ev(ptr noundef nonnull align 8 dereferenceable(8) %0) #8 comdat align 2 {
  %2 = alloca ptr, align 8
  store ptr %0, ptr %2, align 8, !tbaa !249
  %3 = load ptr, ptr %2, align 8
  %4 = getelementptr inbounds nuw %"struct.nanobind::detail::type_caster_base.87", ptr %3, i32 0, i32 0
  %5 = load ptr, ptr %4, align 8, !tbaa !251
  ret ptr %5
}

; Function Attrs: alwaysinline mustprogress nounwind optsize uwtable
define linkonce_odr hidden noundef zeroext i1 @_ZN8nanobind6detail16type_caster_baseI17ClassWithPropertyE11from_pythonENS_6handleEhPNS0_12cleanup_listE(ptr noundef nonnull align 8 dereferenceable(8) %0, ptr %1, i8 noundef zeroext %2, ptr noundef %3) #5 comdat align 2 {
  %5 = alloca %"class.nanobind::handle", align 8
  %6 = alloca ptr, align 8
  %7 = alloca i8, align 1
  %8 = alloca ptr, align 8
  %9 = getelementptr inbounds nuw %"class.nanobind::handle", ptr %5, i32 0, i32 0
  store ptr %1, ptr %9, align 8
  store ptr %0, ptr %6, align 8, !tbaa !228
  store i8 %2, ptr %7, align 1, !tbaa !18
  store ptr %3, ptr %8, align 8, !tbaa !117
  %10 = load ptr, ptr %6, align 8
  %11 = call noundef ptr @_ZNK8nanobind6handle3ptrEv(ptr noundef nonnull align 8 dereferenceable(8) %5) #12
  %12 = load i8, ptr %7, align 1, !tbaa !18
  %13 = load ptr, ptr %8, align 8, !tbaa !117
  %14 = getelementptr inbounds nuw %"struct.nanobind::detail::type_caster_base.74", ptr %10, i32 0, i32 0
  %15 = call noundef zeroext i1 @_ZN8nanobind6detail11nb_type_getEPKSt9type_infoP7_objecthPNS0_12cleanup_listEPPv(ptr noundef @_ZTI17ClassWithProperty, ptr noundef %11, i8 noundef zeroext %12, ptr noundef %13, ptr noundef %14) #14
  ret i1 %15
}

; Function Attrs: alwaysinline mustprogress nounwind optsize uwtable
define linkonce_odr hidden noundef nonnull align 8 dereferenceable(8) ptr @_ZN8nanobind6detail5tupleIJNS0_11type_casterI22ClassWithClassPropertyiEENS2_I17ClassWithPropertyiEEEE3getILm1EEERDav(ptr noundef nonnull align 8 dereferenceable(16) %0) #5 comdat align 2 {
  %2 = alloca ptr, align 8
  store ptr %0, ptr %2, align 8, !tbaa !247
  %3 = load ptr, ptr %2, align 8
  %4 = call noundef nonnull align 8 dereferenceable(8) ptr @_ZN8nanobind6detail5tupleIJNS0_11type_casterI17ClassWithPropertyiEEEE3getILm0EEERDav(ptr noundef nonnull align 8 dereferenceable(8) %3) #12
  ret ptr %4
}

; Function Attrs: alwaysinline mustprogress nounwind optsize uwtable
define linkonce_odr hidden noundef zeroext i1 @_ZN8nanobind6detail16type_caster_baseI22ClassWithClassPropertyE11from_pythonENS_6handleEhPNS0_12cleanup_listE(ptr noundef nonnull align 8 dereferenceable(8) %0, ptr %1, i8 noundef zeroext %2, ptr noundef %3) #5 comdat align 2 {
  %5 = alloca %"class.nanobind::handle", align 8
  %6 = alloca ptr, align 8
  %7 = alloca i8, align 1
  %8 = alloca ptr, align 8
  %9 = getelementptr inbounds nuw %"class.nanobind::handle", ptr %5, i32 0, i32 0
  store ptr %1, ptr %9, align 8
  store ptr %0, ptr %6, align 8, !tbaa !249
  store i8 %2, ptr %7, align 1, !tbaa !18
  store ptr %3, ptr %8, align 8, !tbaa !117
  %10 = load ptr, ptr %6, align 8
  %11 = call noundef ptr @_ZNK8nanobind6handle3ptrEv(ptr noundef nonnull align 8 dereferenceable(8) %5) #12
  %12 = load i8, ptr %7, align 1, !tbaa !18
  %13 = load ptr, ptr %8, align 8, !tbaa !117
  %14 = getelementptr inbounds nuw %"struct.nanobind::detail::type_caster_base.87", ptr %10, i32 0, i32 0
  %15 = call noundef zeroext i1 @_ZN8nanobind6detail11nb_type_getEPKSt9type_infoP7_objecthPNS0_12cleanup_listEPPv(ptr noundef @_ZTI22ClassWithClassProperty, ptr noundef %11, i8 noundef zeroext %12, ptr noundef %13, ptr noundef %14) #14
  ret i1 %15
}

; Function Attrs: alwaysinline mustprogress nounwind optsize uwtable
define linkonce_odr hidden void @_ZN8nanobind6handleC2EPK7_object(ptr noundef nonnull align 8 dereferenceable(8) %0, ptr noundef %1) unnamed_addr #5 comdat align 2 {
  %3 = alloca ptr, align 8
  %4 = alloca ptr, align 8
  store ptr %0, ptr %3, align 8, !tbaa !12
  store ptr %1, ptr %4, align 8, !tbaa !3
  %5 = load ptr, ptr %3, align 8
  %6 = getelementptr inbounds nuw %"class.nanobind::handle", ptr %5, i32 0, i32 0
  %7 = load ptr, ptr %4, align 8, !tbaa !3
  store ptr %7, ptr %6, align 8, !tbaa !14
  ret void
}

; Function Attrs: alwaysinline mustprogress nounwind optsize uwtable
define linkonce_odr hidden noundef nonnull align 8 dereferenceable(8) ptr @_ZN8nanobind6detail5tupleIJNS0_11type_casterI22ClassWithClassPropertyiEENS2_I17ClassWithPropertyiEEEE3getILm0EEERDav(ptr noundef nonnull align 8 dereferenceable(16) %0) #5 comdat align 2 {
  %2 = alloca ptr, align 8
  store ptr %0, ptr %2, align 8, !tbaa !247
  %3 = load ptr, ptr %2, align 8
  %4 = getelementptr inbounds nuw %"struct.nanobind::detail::tuple.85", ptr %3, i32 0, i32 1
  ret ptr %4
}

; Function Attrs: alwaysinline mustprogress optsize uwtable
define internal noundef ptr @"_ZZN8nanobind6detail11func_createILb0ELb1EZL29nanobind_init_test_thread_extRNS_7module_EE3$_4vJP22ClassWithClassProperty17ClassWithPropertyEJLm0ELm1EEJNS_5scopeENS_4nameENS_9is_methodENS_3argEEEEP7_objectOT1_PFT2_DpT3_ESt16integer_sequenceImJXspT4_EEEDpRKT5_ENKUlPvPSD_PhNS_9rv_policyEPNS0_12cleanup_listEE_clESR_SS_ST_SU_SW_"(ptr noundef nonnull align 1 dereferenceable(1) %0, ptr noundef %1, ptr noundef %2, ptr noundef %3, i32 noundef %4, ptr noundef %5) #3 align 2 {
  %7 = alloca ptr, align 8
  %8 = alloca ptr, align 8
  %9 = alloca ptr, align 8
  %10 = alloca ptr, align 8
  %11 = alloca ptr, align 8
  %12 = alloca i32, align 4
  %13 = alloca ptr, align 8
  %14 = alloca ptr, align 8
  %15 = alloca %"struct.nanobind::detail::tuple.85", align 8
  %16 = alloca %"class.nanobind::handle", align 8
  %17 = alloca %"class.nanobind::handle", align 8
  %18 = alloca i32, align 4
  %19 = alloca ptr, align 8
  %20 = alloca %struct.ClassWithProperty, align 4
  store ptr %0, ptr %8, align 8, !tbaa !46
  store ptr %1, ptr %9, align 8, !tbaa !46
  store ptr %2, ptr %10, align 8, !tbaa !115
  store ptr %3, ptr %11, align 8, !tbaa !29
  store i32 %4, ptr %12, align 4, !tbaa !19
  store ptr %5, ptr %13, align 8, !tbaa !117
  call void @llvm.lifetime.start.p0(i64 8, ptr %14) #13
  %21 = load ptr, ptr %9, align 8, !tbaa !46
  store ptr %21, ptr %14, align 8, !tbaa !242
  call void @llvm.lifetime.start.p0(i64 16, ptr %15) #13
  %22 = call noundef nonnull align 8 dereferenceable(8) ptr @_ZN8nanobind6detail5tupleIJNS0_11type_casterI22ClassWithClassPropertyiEENS2_I17ClassWithPropertyiEEEE3getILm0EEERDav(ptr noundef nonnull align 8 dereferenceable(16) %15) #12
  %23 = load ptr, ptr %10, align 8, !tbaa !115
  %24 = getelementptr inbounds nuw ptr, ptr %23, i64 0
  %25 = load ptr, ptr %24, align 8, !tbaa !3
  call void @_ZN8nanobind6handleC2EPK7_object(ptr noundef nonnull align 8 dereferenceable(8) %16, ptr noundef %25) #12
  %26 = load ptr, ptr %11, align 8, !tbaa !29
  %27 = getelementptr inbounds nuw i8, ptr %26, i64 0
  %28 = load i8, ptr %27, align 1, !tbaa !18
  %29 = load ptr, ptr %13, align 8, !tbaa !117
  %30 = getelementptr inbounds nuw %"class.nanobind::handle", ptr %16, i32 0, i32 0
  %31 = load ptr, ptr %30, align 8
  %32 = call noundef zeroext i1 @_ZN8nanobind6detail16type_caster_baseI22ClassWithClassPropertyE11from_pythonENS_6handleEhPNS0_12cleanup_listE(ptr noundef nonnull align 8 dereferenceable(8) %22, ptr %31, i8 noundef zeroext %28, ptr noundef %29) #14
  br i1 %32, label %33, label %45

33:                                               ; preds = %6
  %34 = call noundef nonnull align 8 dereferenceable(8) ptr @_ZN8nanobind6detail5tupleIJNS0_11type_casterI22ClassWithClassPropertyiEENS2_I17ClassWithPropertyiEEEE3getILm1EEERDav(ptr noundef nonnull align 8 dereferenceable(16) %15) #12
  %35 = load ptr, ptr %10, align 8, !tbaa !115
  %36 = getelementptr inbounds nuw ptr, ptr %35, i64 1
  %37 = load ptr, ptr %36, align 8, !tbaa !3
  call void @_ZN8nanobind6handleC2EPK7_object(ptr noundef nonnull align 8 dereferenceable(8) %17, ptr noundef %37) #12
  %38 = load ptr, ptr %11, align 8, !tbaa !29
  %39 = getelementptr inbounds nuw i8, ptr %38, i64 1
  %40 = load i8, ptr %39, align 1, !tbaa !18
  %41 = load ptr, ptr %13, align 8, !tbaa !117
  %42 = getelementptr inbounds nuw %"class.nanobind::handle", ptr %17, i32 0, i32 0
  %43 = load ptr, ptr %42, align 8
  %44 = call noundef zeroext i1 @_ZN8nanobind6detail16type_caster_baseI17ClassWithPropertyE11from_pythonENS_6handleEhPNS0_12cleanup_listE(ptr noundef nonnull align 8 dereferenceable(8) %34, ptr %43, i8 noundef zeroext %40, ptr noundef %41) #14
  br i1 %44, label %46, label %45

45:                                               ; preds = %33, %6
  store ptr inttoptr (i64 1 to ptr), ptr %7, align 8
  store i32 1, ptr %18, align 4
  br label %56

46:                                               ; preds = %33
  call void @llvm.lifetime.start.p0(i64 8, ptr %19) #13
  %47 = load ptr, ptr %14, align 8, !tbaa !242
  %48 = call noundef nonnull align 8 dereferenceable(8) ptr @_ZN8nanobind6detail5tupleIJNS0_11type_casterI22ClassWithClassPropertyiEENS2_I17ClassWithPropertyiEEEE3getILm0EEERDav(ptr noundef nonnull align 8 dereferenceable(16) %15) #12
  %49 = call noundef ptr @_ZN8nanobind6detail16type_caster_baseI22ClassWithClassPropertyEcvPS2_Ev(ptr noundef nonnull align 8 dereferenceable(8) %48) #12
  %50 = call noundef nonnull align 8 dereferenceable(8) ptr @_ZN8nanobind6detail5tupleIJNS0_11type_casterI22ClassWithClassPropertyiEENS2_I17ClassWithPropertyiEEEE3getILm1EEERDav(ptr noundef nonnull align 8 dereferenceable(16) %15) #12
  %51 = call noundef nonnull align 4 dereferenceable(4) ptr @_ZN8nanobind6detail16type_caster_baseI17ClassWithPropertyEcvRS2_Ev(ptr noundef nonnull align 8 dereferenceable(8) %50) #12
  call void @llvm.memcpy.p0.p0.i64(ptr align 4 %20, ptr align 4 %51, i64 4, i1 false), !tbaa.struct !246
  %52 = getelementptr inbounds nuw %struct.ClassWithProperty, ptr %20, i32 0, i32 0
  %53 = load i32, ptr %52, align 4
  call void @"_ZZL29nanobind_init_test_thread_extRN8nanobind7module_EENK3$_4clEP22ClassWithClassProperty17ClassWithProperty"(ptr noundef nonnull align 1 dereferenceable(1) %47, ptr noundef %49, i32 %53) #12
  store ptr @_Py_NoneStruct, ptr %19, align 8, !tbaa !3
  %54 = load ptr, ptr %19, align 8, !tbaa !3
  call void @_ZL10_Py_INCREFP7_object(ptr noundef %54) #12
  %55 = load ptr, ptr %19, align 8, !tbaa !3
  store ptr %55, ptr %7, align 8
  store i32 1, ptr %18, align 4
  call void @llvm.lifetime.end.p0(i64 8, ptr %19) #13
  br label %56

56:                                               ; preds = %46, %45
  call void @llvm.lifetime.end.p0(i64 16, ptr %15) #13
  call void @llvm.lifetime.end.p0(i64 8, ptr %14) #13
  %57 = load ptr, ptr %7, align 8
  ret ptr %57
}

; Function Attrs: inlinehint mustprogress optsize uwtable
define internal noundef ptr @"_ZZN8nanobind6detail11func_createILb0ELb1EZL29nanobind_init_test_thread_extRNS_7module_EE3$_4vJP22ClassWithClassProperty17ClassWithPropertyEJLm0ELm1EEJNS_5scopeENS_4nameENS_9is_methodENS_3argEEEEP7_objectOT1_PFT2_DpT3_ESt16integer_sequenceImJXspT4_EEEDpRKT5_ENUlPvPSD_PhNS_9rv_policyEPNS0_12cleanup_listEE_8__invokeESR_SS_ST_SU_SW_"(ptr noundef %0, ptr noundef %1, ptr noundef %2, i32 noundef %3, ptr noundef %4) #9 align 2 {
  %6 = alloca ptr, align 8
  %7 = alloca ptr, align 8
  %8 = alloca ptr, align 8
  %9 = alloca i32, align 4
  %10 = alloca ptr, align 8
  %11 = alloca %class.anon.83, align 1
  store ptr %0, ptr %6, align 8, !tbaa !46
  store ptr %1, ptr %7, align 8, !tbaa !115
  store ptr %2, ptr %8, align 8, !tbaa !29
  store i32 %3, ptr %9, align 4, !tbaa !19
  store ptr %4, ptr %10, align 8, !tbaa !117
  %12 = load ptr, ptr %6, align 8, !tbaa !46
  %13 = load ptr, ptr %7, align 8, !tbaa !115
  %14 = load ptr, ptr %8, align 8, !tbaa !29
  %15 = load i32, ptr %9, align 4, !tbaa !19
  %16 = load ptr, ptr %10, align 8, !tbaa !117
  %17 = call noundef ptr @"_ZZN8nanobind6detail11func_createILb0ELb1EZL29nanobind_init_test_thread_extRNS_7module_EE3$_4vJP22ClassWithClassProperty17ClassWithPropertyEJLm0ELm1EEJNS_5scopeENS_4nameENS_9is_methodENS_3argEEEEP7_objectOT1_PFT2_DpT3_ESt16integer_sequenceImJXspT4_EEEDpRKT5_ENKUlPvPSD_PhNS_9rv_policyEPNS0_12cleanup_listEE_clESR_SS_ST_SU_SW_"(ptr noundef nonnull align 1 dereferenceable(1) %11, ptr noundef %12, ptr noundef %13, ptr noundef %14, i32 noundef %15, ptr noundef %16) #12
  ret ptr %17
}